target datalayout = "e-m:e-p270:32:32-p271:32:32-p272:64:64-i64:64-i128:128-f80:128-n8:16:32:64-S128"
target triple = "x86_64-pc-linux-gnu"

%"class.net::HpackStaticTable" = type { %"class.std::deque", %"class.std::unordered_set", %"class.std::unordered_map" }
%"class.std::deque" = type { %"class.std::_Deque_base" }
%"class.std::_Deque_base" = type { %"struct.std::_Deque_base<net::HpackEntry, std::allocator<net::HpackEntry>>::_Deque_impl" }
%"struct.std::_Deque_base<net::HpackEntry, std::allocator<net::HpackEntry>>::_Deque_impl" = type { %"struct.std::_Deque_base<net::HpackEntry, std::allocator<net::HpackEntry>>::_Deque_impl_data" }
%"struct.std::_Deque_base<net::HpackEntry, std::allocator<net::HpackEntry>>::_Deque_impl_data" = type { ptr, i64, %"struct.std::_Deque_iterator", %"struct.std::_Deque_iterator" }
%"struct.std::_Deque_iterator" = type { ptr, ptr, ptr, ptr }
%"class.std::unordered_set" = type { %"class.std::_Hashtable" }
%"class.std::_Hashtable" = type { ptr, i64, %"struct.std::__detail::_Hash_node_base", i64, %"struct.std::__detail::_Prime_rehash_policy", ptr }
%"struct.std::__detail::_Hash_node_base" = type { ptr }
%"struct.std::__detail::_Prime_rehash_policy" = type { float, i64 }
%"class.std::unordered_map" = type { %"class.std::_Hashtable.5" }
%"class.std::_Hashtable.5" = type { ptr, i64, %"struct.std::__detail::_Hash_node_base", i64, %"struct.std::__detail::_Prime_rehash_policy", ptr }

; Function Attrs: mustprogress nounwind uwtable
define linkonce_odr void @_ZNSt15__new_allocatorINSt8__detail10_Hash_nodeISt4pairIKN4base16BasicStringPieceINSt7__cxx1112basic_stringIcSt11char_traitsIcESaIcEEEEEPKN3net10HpackEntryEELb1EEEEC2Ev(ptr noundef nonnull align 1 dereferenceable(1) %0) unnamed_addr #1 comdat align 2 {
  %2 = alloca ptr, align 8
  store ptr %0, ptr %2, align 8, !tbaa !144
  ret void
}

; Function Attrs: mustprogress nounwind uwtable
define linkonce_odr void @_ZNSt15__new_allocatorINSt8__detail10_Hash_nodeIPN3net10HpackEntryELb1EEEEC2Ev(ptr noundef nonnull align 1 dereferenceable(1) %0) unnamed_addr #1 comdat align 2 {
  %2 = alloca ptr, align 8
  store ptr %0, ptr %2, align 8, !tbaa !121
  ret void
}

; Function Attrs: mustprogress nounwind uwtable
define linkonce_odr void @_ZNSaINSt8__detail10_Hash_nodeISt4pairIKN4base16BasicStringPieceINSt7__cxx1112basic_stringIcSt11char_traitsIcESaIcEEEEEPKN3net10HpackEntryEELb1EEEEC2Ev(ptr noundef nonnull align 1 dereferenceable(1) %0) unnamed_addr #1 comdat align 2 {
  %2 = alloca ptr, align 8
  store ptr %0, ptr %2, align 8, !tbaa !142
  %3 = load ptr, ptr %2, align 8
  call void @_ZNSt15__new_allocatorINSt8__detail10_Hash_nodeISt4pairIKN4base16BasicStringPieceINSt7__cxx1112basic_stringIcSt11char_traitsIcESaIcEEEEEPKN3net10HpackEntryEELb1EEEEC2Ev(ptr noundef nonnull align 1 dereferenceable(1) %3) #14
  ret void
}

; Function Attrs: mustprogress nounwind uwtable
define linkonce_odr void @_ZNSt8__detail21_Hashtable_ebo_helperILi1EN4base15StringPieceHashELb1EEC2Ev(ptr noundef nonnull align 1 dereferenceable(1) %0) unnamed_addr #1 comdat align 2 {
  %2 = alloca ptr, align 8
  store ptr %0, ptr %2, align 8, !tbaa !138
  ret void
}

; Function Attrs: mustprogress nounwind uwtable
define linkonce_odr void @_ZNSaINSt8__detail10_Hash_nodeIPN3net10HpackEntryELb1EEEEC2Ev(ptr noundef nonnull align 1 dereferenceable(1) %0) unnamed_addr #1 comdat align 2 {
  %2 = alloca ptr, align 8
  store ptr %0, ptr %2, align 8, !tbaa !119
  %3 = load ptr, ptr %2, align 8
  call void @_ZNSt15__new_allocatorINSt8__detail10_Hash_nodeIPN3net10HpackEntryELb1EEEEC2Ev(ptr noundef nonnull align 1 dereferenceable(1) %3) #14
  ret void
}

; Function Attrs: mustprogress nounwind uwtable
define linkonce_odr void @_ZNSt8__detail21_Hashtable_ebo_helperILi1EN3net16HpackHeaderTable11EntryHasherELb1EEC2Ev(ptr noundef nonnull align 1 dereferenceable(1) %0) unnamed_addr #1 comdat align 2 {
  %2 = alloca ptr, align 8
  store ptr %0, ptr %2, align 8, !tbaa !115
  ret void
}

; Function Attrs: mustprogress nounwind uwtable
define linkonce_odr void @_ZNSt15_Deque_iteratorIN3net10HpackEntryERS1_PS1_EC2Ev(ptr noundef nonnull align 8 dereferenceable(32) %0) unnamed_addr #1 comdat align 2 {
  %2 = alloca ptr, align 8
  store ptr %0, ptr %2, align 8, !tbaa !73
  %3 = load ptr, ptr %2, align 8
  %4 = getelementptr inbounds nuw %"struct.std::_Deque_iterator", ptr %3, i32 0, i32 0
  store ptr null, ptr %4, align 8, !tbaa !75
  %5 = getelementptr inbounds nuw %"struct.std::_Deque_iterator", ptr %3, i32 0, i32 1
  store ptr null, ptr %5, align 8, !tbaa !76
  %6 = getelementptr inbounds nuw %"struct.std::_Deque_iterator", ptr %3, i32 0, i32 2
  store ptr null, ptr %6, align 8, !tbaa !77
  %7 = getelementptr inbounds nuw %"struct.std::_Deque_iterator", ptr %3, i32 0, i32 3
  store ptr null, ptr %7, align 8, !tbaa !78
  ret void
}

; Function Attrs: mustprogress nounwind uwtable
define linkonce_odr void @_ZNSt15__new_allocatorIN3net10HpackEntryEEC2Ev(ptr noundef nonnull align 1 dereferenceable(1) %0) unnamed_addr #1 comdat align 2 {
  %2 = alloca ptr, align 8
  store ptr %0, ptr %2, align 8, !tbaa !67
  ret void
}

; Function Attrs: mustprogress nounwind uwtable
define linkonce_odr void @_ZNSt8__detail21_Hashtable_ebo_helperILi0ESaINS_10_Hash_nodeISt4pairIKN4base16BasicStringPieceINSt7__cxx1112basic_stringIcSt11char_traitsIcESaIcEEEEEPKN3net10HpackEntryEELb1EEEELb1EEC2Ev(ptr noundef nonnull align 1 dereferenceable(1) %0) unnamed_addr #1 comdat align 2 {
  %2 = alloca ptr, align 8
  store ptr %0, ptr %2, align 8, !tbaa !140
  %3 = load ptr, ptr %2, align 8
  call void @_ZNSaINSt8__detail10_Hash_nodeISt4pairIKN4base16BasicStringPieceINSt7__cxx1112basic_stringIcSt11char_traitsIcESaIcEEEEEPKN3net10HpackEntryEELb1EEEEC2Ev(ptr noundef nonnull align 1 dereferenceable(1) %3) #14
  ret void
}

; Function Attrs: mustprogress nounwind uwtable
define linkonce_odr void @_ZNSt8__detail21_Hashtable_ebo_helperILi0ESt8equal_toIN4base16BasicStringPieceINSt7__cxx1112basic_stringIcSt11char_traitsIcESaIcEEEEEELb1EEC2Ev(ptr noundef nonnull align 1 dereferenceable(1) %0) unnamed_addr #1 comdat align 2 {
  %2 = alloca ptr, align 8
  store ptr %0, ptr %2, align 8, !tbaa !136
  ret void
}

; Function Attrs: mustprogress nounwind uwtable
define linkonce_odr void @_ZNSt8__detail15_Hash_code_baseIN4base16BasicStringPieceINSt7__cxx1112basic_stringIcSt11char_traitsIcESaIcEEEEESt4pairIKS9_PKN3net10HpackEntryEENS_10_Select1stENS1_15StringPieceHashENS_18_Mod_range_hashingENS_20_Default_ranged_hashELb1EEC2Ev(ptr noundef nonnull align 1 dereferenceable(1) %0) unnamed_addr #1 comdat align 2 {
  %2 = alloca ptr, align 8
  store ptr %0, ptr %2, align 8, !tbaa !134
  %3 = load ptr, ptr %2, align 8
  call void @_ZNSt8__detail21_Hashtable_ebo_helperILi1EN4base15StringPieceHashELb1EEC2Ev(ptr noundef nonnull align 1 dereferenceable(1) %3) #14
  ret void
}

; Function Attrs: mustprogress nounwind uwtable
define linkonce_odr void @_ZNSt8__detail21_Hashtable_ebo_helperILi0ESaINS_10_Hash_nodeIPN3net10HpackEntryELb1EEEELb1EEC2Ev(ptr noundef nonnull align 1 dereferenceable(1) %0) unnamed_addr #1 comdat align 2 {
  %2 = alloca ptr, align 8
  store ptr %0, ptr %2, align 8, !tbaa !117
  %3 = load ptr, ptr %2, align 8
  call void @_ZNSaINSt8__detail10_Hash_nodeIPN3net10HpackEntryELb1EEEEC2Ev(ptr noundef nonnull align 1 dereferenceable(1) %3) #14
  ret void
}

; Function Attrs: mustprogress nounwind uwtable
define linkonce_odr void @_ZNSt8__detail21_Hashtable_ebo_helperILi0EN3net16HpackHeaderTable9EntriesEqELb1EEC2Ev(ptr noundef nonnull align 1 dereferenceable(1) %0) unnamed_addr #1 comdat align 2 {
  %2 = alloca ptr, align 8
  store ptr %0, ptr %2, align 8, !tbaa !113
  ret void
}

; Function Attrs: mustprogress nounwind uwtable
define linkonce_odr void @_ZNSt8__detail15_Hash_code_baseIPN3net10HpackEntryES3_NS_9_IdentityENS1_16HpackHeaderTable11EntryHasherENS_18_Mod_range_hashingENS_20_Default_ranged_hashELb1EEC2Ev(ptr noundef nonnull align 1 dereferenceable(1) %0) unnamed_addr #1 comdat align 2 {
  %2 = alloca ptr, align 8
  store ptr %0, ptr %2, align 8, !tbaa !111
  %3 = load ptr, ptr %2, align 8
  call void @_ZNSt8__detail21_Hashtable_ebo_helperILi1EN3net16HpackHeaderTable11EntryHasherELb1EEC2Ev(ptr noundef nonnull align 1 dereferenceable(1) %3) #14
  ret void
}

; Function Attrs: mustprogress nounwind uwtable
define linkonce_odr void @_ZNSt11_Deque_baseIN3net10HpackEntryESaIS1_EE16_Deque_impl_dataC2Ev(ptr noundef nonnull align 8 dereferenceable(80) %0) unnamed_addr #1 comdat align 2 {
  %2 = alloca ptr, align 8
  store ptr %0, ptr %2, align 8, !tbaa !71
  %3 = load ptr, ptr %2, align 8
  %4 = getelementptr inbounds nuw %"struct.std::_Deque_base<net::HpackEntry, std::allocator<net::HpackEntry>>::_Deque_impl_data", ptr %3, i32 0, i32 0
  store ptr null, ptr %4, align 8, !tbaa !62
  %5 = getelementptr inbounds nuw %"struct.std::_Deque_base<net::HpackEntry, std::allocator<net::HpackEntry>>::_Deque_impl_data", ptr %3, i32 0, i32 1
  store i64 0, ptr %5, align 8, !tbaa !59
  %6 = getelementptr inbounds nuw %"struct.std::_Deque_base<net::HpackEntry, std::allocator<net::HpackEntry>>::_Deque_impl_data", ptr %3, i32 0, i32 2
  call void @_ZNSt15_Deque_iteratorIN3net10HpackEntryERS1_PS1_EC2Ev(ptr noundef nonnull align 8 dereferenceable(32) %6) #14
  %7 = getelementptr inbounds nuw %"struct.std::_Deque_base<net::HpackEntry, std::allocator<net::HpackEntry>>::_Deque_impl_data", ptr %3, i32 0, i32 3
  call void @_ZNSt15_Deque_iteratorIN3net10HpackEntryERS1_PS1_EC2Ev(ptr noundef nonnull align 8 dereferenceable(32) %7) #14
  ret void
}

; Function Attrs: mustprogress nounwind uwtable
define linkonce_odr void @_ZNSaIN3net10HpackEntryEEC2Ev(ptr noundef nonnull align 1 dereferenceable(1) %0) unnamed_addr #1 comdat align 2 {
  %2 = alloca ptr, align 8
  store ptr %0, ptr %2, align 8, !tbaa !69
  %3 = load ptr, ptr %2, align 8
  call void @_ZNSt15__new_allocatorIN3net10HpackEntryEEC2Ev(ptr noundef nonnull align 1 dereferenceable(1) %3) #14
  ret void
}

; Function Attrs: mustprogress nounwind uwtable
define linkonce_odr void @_ZNSt8__detail16_Hashtable_allocISaINS_10_Hash_nodeISt4pairIKN4base16BasicStringPieceINSt7__cxx1112basic_stringIcSt11char_traitsIcESaIcEEEEEPKN3net10HpackEntryEELb1EEEEEC2Ev(ptr noundef nonnull align 1 dereferenceable(1) %0) unnamed_addr #1 comdat align 2 {
  %2 = alloca ptr, align 8
  store ptr %0, ptr %2, align 8, !tbaa !132
  %3 = load ptr, ptr %2, align 8
  call void @_ZNSt8__detail21_Hashtable_ebo_helperILi0ESaINS_10_Hash_nodeISt4pairIKN4base16BasicStringPieceINSt7__cxx1112basic_stringIcSt11char_traitsIcESaIcEEEEEPKN3net10HpackEntryEELb1EEEELb1EEC2Ev(ptr noundef nonnull align 1 dereferenceable(1) %3) #14
  ret void
}

; Function Attrs: mustprogress nounwind uwtable
define linkonce_odr void @_ZNSt8__detail15_Hashtable_baseIN4base16BasicStringPieceINSt7__cxx1112basic_stringIcSt11char_traitsIcESaIcEEEEESt4pairIKS9_PKN3net10HpackEntryEENS_10_Select1stESt8equal_toIS9_ENS1_15StringPieceHashENS_18_Mod_range_hashingENS_20_Default_ranged_hashENS_17_Hashtable_traitsILb1ELb0ELb1EEEEC2Ev(ptr noundef nonnull align 1 dereferenceable(1) %0) unnamed_addr #1 comdat align 2 {
  %2 = alloca ptr, align 8
  store ptr %0, ptr %2, align 8, !tbaa !130
  %3 = load ptr, ptr %2, align 8
  call void @_ZNSt8__detail15_Hash_code_baseIN4base16BasicStringPieceINSt7__cxx1112basic_stringIcSt11char_traitsIcESaIcEEEEESt4pairIKS9_PKN3net10HpackEntryEENS_10_Select1stENS1_15StringPieceHashENS_18_Mod_range_hashingENS_20_Default_ranged_hashELb1EEC2Ev(ptr noundef nonnull align 1 dereferenceable(1) %3) #14
  call void @_ZNSt8__detail21_Hashtable_ebo_helperILi0ESt8equal_toIN4base16BasicStringPieceINSt7__cxx1112basic_stringIcSt11char_traitsIcESaIcEEEEEELb1EEC2Ev(ptr noundef nonnull align 1 dereferenceable(1) %3) #14
  ret void
}

; Function Attrs: mustprogress nounwind uwtable
define linkonce_odr void @_ZNSt8__detail20_Prime_rehash_policyC2Ef(ptr noundef nonnull align 8 dereferenceable(16) %0, float noundef %1) unnamed_addr #1 comdat align 2 {
  %3 = alloca ptr, align 8
  %4 = alloca float, align 4
  store ptr %0, ptr %3, align 8, !tbaa !106
  store float %1, ptr %4, align 4, !tbaa !108
  %5 = load ptr, ptr %3, align 8
  %6 = getelementptr inbounds nuw %"struct.std::__detail::_Prime_rehash_policy", ptr %5, i32 0, i32 0
  %7 = load float, ptr %4, align 4, !tbaa !108
  store float %7, ptr %6, align 8, !tbaa !109
  %8 = getelementptr inbounds nuw %"struct.std::__detail::_Prime_rehash_policy", ptr %5, i32 0, i32 1
  store i64 0, ptr %8, align 8, !tbaa !110
  ret void
}

; Function Attrs: mustprogress nounwind uwtable
define linkonce_odr void @_ZNSt8__detail15_Hash_node_baseC2Ev(ptr noundef nonnull align 8 dereferenceable(8) %0) unnamed_addr #1 comdat align 2 {
  %2 = alloca ptr, align 8
  store ptr %0, ptr %2, align 8, !tbaa !104
  %3 = load ptr, ptr %2, align 8
  %4 = getelementptr inbounds nuw %"struct.std::__detail::_Hash_node_base", ptr %3, i32 0, i32 0
  store ptr null, ptr %4, align 8, !tbaa !105
  ret void
}

; Function Attrs: mustprogress nounwind uwtable
define linkonce_odr void @_ZNSt8__detail16_Hashtable_allocISaINS_10_Hash_nodeIPN3net10HpackEntryELb1EEEEEC2Ev(ptr noundef nonnull align 1 dereferenceable(1) %0) unnamed_addr #1 comdat align 2 {
  %2 = alloca ptr, align 8
  store ptr %0, ptr %2, align 8, !tbaa !102
  %3 = load ptr, ptr %2, align 8
  call void @_ZNSt8__detail21_Hashtable_ebo_helperILi0ESaINS_10_Hash_nodeIPN3net10HpackEntryELb1EEEELb1EEC2Ev(ptr noundef nonnull align 1 dereferenceable(1) %3) #14
  ret void
}

; Function Attrs: mustprogress nounwind uwtable
define linkonce_odr void @_ZNSt8__detail15_Hashtable_baseIPN3net10HpackEntryES3_NS_9_IdentityENS1_16HpackHeaderTable9EntriesEqENS5_11EntryHasherENS_18_Mod_range_hashingENS_20_Default_ranged_hashENS_17_Hashtable_traitsILb1ELb1ELb1EEEEC2Ev(ptr noundef nonnull align 1 dereferenceable(1) %0) unnamed_addr #1 comdat align 2 {
  %2 = alloca ptr, align 8
  store ptr %0, ptr %2, align 8, !tbaa !100
  %3 = load ptr, ptr %2, align 8
  call void @_ZNSt8__detail15_Hash_code_baseIPN3net10HpackEntryES3_NS_9_IdentityENS1_16HpackHeaderTable11EntryHasherENS_18_Mod_range_hashingENS_20_Default_ranged_hashELb1EEC2Ev(ptr noundef nonnull align 1 dereferenceable(1) %3) #14
  call void @_ZNSt8__detail21_Hashtable_ebo_helperILi0EN3net16HpackHeaderTable9EntriesEqELb1EEC2Ev(ptr noundef nonnull align 1 dereferenceable(1) %3) #14
  ret void
}

; Function Attrs: mustprogress nounwind uwtable
define linkonce_odr void @_ZNSt15__new_allocatorIN3net10HpackEntryEED2Ev(ptr noundef nonnull align 1 dereferenceable(1) %0) unnamed_addr #1 comdat align 2 {
  %2 = alloca ptr, align 8
  store ptr %0, ptr %2, align 8, !tbaa !67
  ret void
}

; Function Attrs: mustprogress nounwind uwtable
define linkonce_odr void @_ZNSt11_Deque_baseIN3net10HpackEntryESaIS1_EE11_Deque_implC2Ev(ptr noundef nonnull align 8 dereferenceable(80) %0) unnamed_addr #1 comdat align 2 {
  %2 = alloca ptr, align 8
  store ptr %0, ptr %2, align 8, !tbaa !57
  %3 = load ptr, ptr %2, align 8
  call void @_ZNSaIN3net10HpackEntryEEC2Ev(ptr noundef nonnull align 1 dereferenceable(1) %3) #14
  call void @_ZNSt11_Deque_baseIN3net10HpackEntryESaIS1_EE16_Deque_impl_dataC2Ev(ptr noundef nonnull align 8 dereferenceable(80) %3) #14
  ret void
}

; Function Attrs: mustprogress nounwind uwtable
define linkonce_odr void @_ZNSt10_HashtableIN4base16BasicStringPieceINSt7__cxx1112basic_stringIcSt11char_traitsIcESaIcEEEEESt4pairIKS8_PKN3net10HpackEntryEESaISF_ENSt8__detail10_Select1stESt8equal_toIS8_ENS0_15StringPieceHashENSH_18_Mod_range_hashingENSH_20_Default_ranged_hashENSH_20_Prime_rehash_policyENSH_17_Hashtable_traitsILb1ELb0ELb1EEEEC2Ev(ptr noundef nonnull align 8 dereferenceable(56) %0) unnamed_addr #1 comdat align 2 {
  %2 = alloca ptr, align 8
  store ptr %0, ptr %2, align 8, !tbaa !123
  %3 = load ptr, ptr %2, align 8
  call void @_ZNSt8__detail15_Hashtable_baseIN4base16BasicStringPieceINSt7__cxx1112basic_stringIcSt11char_traitsIcESaIcEEEEESt4pairIKS9_PKN3net10HpackEntryEENS_10_Select1stESt8equal_toIS9_ENS1_15StringPieceHashENS_18_Mod_range_hashingENS_20_Default_ranged_hashENS_17_Hashtable_traitsILb1ELb0ELb1EEEEC2Ev(ptr noundef nonnull align 1 dereferenceable(1) %3) #14
  call void @_ZNSt8__detail16_Hashtable_allocISaINS_10_Hash_nodeISt4pairIKN4base16BasicStringPieceINSt7__cxx1112basic_stringIcSt11char_traitsIcESaIcEEEEEPKN3net10HpackEntryEELb1EEEEEC2Ev(ptr noundef nonnull align 1 dereferenceable(1) %3) #14
  %4 = getelementptr inbounds nuw %"class.std::_Hashtable.5", ptr %3, i32 0, i32 0
  %5 = getelementptr inbounds nuw %"class.std::_Hashtable.5", ptr %3, i32 0, i32 5
  store ptr %5, ptr %4, align 8, !tbaa !125
  %6 = getelementptr inbounds nuw %"class.std::_Hashtable.5", ptr %3, i32 0, i32 1
  store i64 1, ptr %6, align 8, !tbaa !127
  %7 = getelementptr inbounds nuw %"class.std::_Hashtable.5", ptr %3, i32 0, i32 2
  call void @_ZNSt8__detail15_Hash_node_baseC2Ev(ptr noundef nonnull align 8 dereferenceable(8) %7) #14
  %8 = getelementptr inbounds nuw %"class.std::_Hashtable.5", ptr %3, i32 0, i32 3
  store i64 0, ptr %8, align 8, !tbaa !128
  %9 = getelementptr inbounds nuw %"class.std::_Hashtable.5", ptr %3, i32 0, i32 4
  call void @_ZNSt8__detail20_Prime_rehash_policyC2Ef(ptr noundef nonnull align 8 dereferenceable(16) %9, float noundef 1.000000e+00) #14
  %10 = getelementptr inbounds nuw %"class.std::_Hashtable.5", ptr %3, i32 0, i32 5
  store ptr null, ptr %10, align 8, !tbaa !129
  ret void
}

; Function Attrs: mustprogress nounwind uwtable
define linkonce_odr void @_ZNSt10_HashtableIPN3net10HpackEntryES2_SaIS2_ENSt8__detail9_IdentityENS0_16HpackHeaderTable9EntriesEqENS6_11EntryHasherENS4_18_Mod_range_hashingENS4_20_Default_ranged_hashENS4_20_Prime_rehash_policyENS4_17_Hashtable_traitsILb1ELb1ELb1EEEEC2Ev(ptr noundef nonnull align 8 dereferenceable(56) %0) unnamed_addr #1 comdat align 2 {
  %2 = alloca ptr, align 8
  store ptr %0, ptr %2, align 8, !tbaa !88
  %3 = load ptr, ptr %2, align 8
  call void @_ZNSt8__detail15_Hashtable_baseIPN3net10HpackEntryES3_NS_9_IdentityENS1_16HpackHeaderTable9EntriesEqENS5_11EntryHasherENS_18_Mod_range_hashingENS_20_Default_ranged_hashENS_17_Hashtable_traitsILb1ELb1ELb1EEEEC2Ev(ptr noundef nonnull align 1 dereferenceable(1) %3) #14
  call void @_ZNSt8__detail16_Hashtable_allocISaINS_10_Hash_nodeIPN3net10HpackEntryELb1EEEEEC2Ev(ptr noundef nonnull align 1 dereferenceable(1) %3) #14
  %4 = getelementptr inbounds nuw %"class.std::_Hashtable", ptr %3, i32 0, i32 0
  %5 = getelementptr inbounds nuw %"class.std::_Hashtable", ptr %3, i32 0, i32 5
  store ptr %5, ptr %4, align 8, !tbaa !90
  %6 = getelementptr inbounds nuw %"class.std::_Hashtable", ptr %3, i32 0, i32 1
  store i64 1, ptr %6, align 8, !tbaa !97
  %7 = getelementptr inbounds nuw %"class.std::_Hashtable", ptr %3, i32 0, i32 2
  call void @_ZNSt8__detail15_Hash_node_baseC2Ev(ptr noundef nonnull align 8 dereferenceable(8) %7) #14
  %8 = getelementptr inbounds nuw %"class.std::_Hashtable", ptr %3, i32 0, i32 3
  store i64 0, ptr %8, align 8, !tbaa !98
  %9 = getelementptr inbounds nuw %"class.std::_Hashtable", ptr %3, i32 0, i32 4
  call void @_ZNSt8__detail20_Prime_rehash_policyC2Ef(ptr noundef nonnull align 8 dereferenceable(16) %9, float noundef 1.000000e+00) #14
  %10 = getelementptr inbounds nuw %"class.std::_Hashtable", ptr %3, i32 0, i32 5
  store ptr null, ptr %10, align 8, !tbaa !99
  ret void
}

; Function Attrs: mustprogress uwtable
define linkonce_odr void @_ZNSt11_Deque_baseIN3net10HpackEntryESaIS1_EEC2Ev(ptr noundef nonnull align 8 dereferenceable(80) %0) unnamed_addr #0 comdat align 2 personality ptr @__gxx_personality_v0 {
  %2 = alloca ptr, align 8
  %3 = alloca ptr, align 8
  %4 = alloca i32, align 4
  store ptr %0, ptr %2, align 8, !tbaa !55
  %5 = load ptr, ptr %2, align 8
  %6 = getelementptr inbounds nuw %"class.std::_Deque_base", ptr %5, i32 0, i32 0
  call void @_ZNSt11_Deque_baseIN3net10HpackEntryESaIS1_EE11_Deque_implC2Ev(ptr noundef nonnull align 8 dereferenceable(80) %6) #14
  invoke void @_ZNSt11_Deque_baseIN3net10HpackEntryESaIS1_EE17_M_initialize_mapEm(ptr noundef nonnull align 8 dereferenceable(80) %5, i64 noundef 0)
          to label %7 unwind label %8

7:                                                ; preds = %1
  ret void

8:                                                ; preds = %1
  %9 = landingpad { ptr, i32 }
          cleanup
  %10 = extractvalue { ptr, i32 } %9, 0
  store ptr %10, ptr %3, align 8
  %11 = extractvalue { ptr, i32 } %9, 1
  store i32 %11, ptr %4, align 4
  call void @_ZNSt15__new_allocatorIN3net10HpackEntryEED2Ev(ptr noundef nonnull align 8 dereferenceable(80) %6) #14
  br label %12

12:                                               ; preds = %8
  %13 = load ptr, ptr %3, align 8
  %14 = load i32, ptr %4, align 4
  %15 = insertvalue { ptr, i32 } poison, ptr %13, 0
  %16 = insertvalue { ptr, i32 } %15, i32 %14, 1
  resume { ptr, i32 } %16
}

; Function Attrs: mustprogress nounwind uwtable
define linkonce_odr void @_ZNSt13unordered_mapIN4base16BasicStringPieceINSt7__cxx1112basic_stringIcSt11char_traitsIcESaIcEEEEEPKN3net10HpackEntryENS0_15StringPieceHashESt8equal_toIS8_ESaISt4pairIKS8_SC_EEEC2Ev(ptr noundef nonnull align 8 dereferenceable(56) %0) unnamed_addr #1 comdat align 2 {
  %2 = alloca ptr, align 8
  store ptr %0, ptr %2, align 8, !tbaa !12
  %3 = load ptr, ptr %2, align 8
  %4 = getelementptr inbounds nuw %"class.std::unordered_map", ptr %3, i32 0, i32 0
  call void @_ZNSt10_HashtableIN4base16BasicStringPieceINSt7__cxx1112basic_stringIcSt11char_traitsIcESaIcEEEEESt4pairIKS8_PKN3net10HpackEntryEESaISF_ENSt8__detail10_Select1stESt8equal_toIS8_ENS0_15StringPieceHashENSH_18_Mod_range_hashingENSH_20_Default_ranged_hashENSH_20_Prime_rehash_policyENSH_17_Hashtable_traitsILb1ELb0ELb1EEEEC2Ev(ptr noundef nonnull align 8 dereferenceable(56) %4) #14
  ret void
}

; Function Attrs: mustprogress nounwind uwtable
define linkonce_odr void @_ZNSt13unordered_setIPN3net10HpackEntryENS0_16HpackHeaderTable11EntryHasherENS3_9EntriesEqESaIS2_EEC2Ev(ptr noundef nonnull align 8 dereferenceable(56) %0) unnamed_addr #1 comdat align 2 {
  %2 = alloca ptr, align 8
  store ptr %0, ptr %2, align 8, !tbaa !10
  %3 = load ptr, ptr %2, align 8
  %4 = getelementptr inbounds nuw %"class.std::unordered_set", ptr %3, i32 0, i32 0
  call void @_ZNSt10_HashtableIPN3net10HpackEntryES2_SaIS2_ENSt8__detail9_IdentityENS0_16HpackHeaderTable9EntriesEqENS6_11EntryHasherENS4_18_Mod_range_hashingENS4_20_Default_ranged_hashENS4_20_Prime_rehash_policyENS4_17_Hashtable_traitsILb1ELb1ELb1EEEEC2Ev(ptr noundef nonnull align 8 dereferenceable(56) %4) #14
  ret void
}

; Function Attrs: mustprogress uwtable
define linkonce_odr void @_ZNSt5dequeIN3net10HpackEntryESaIS1_EEC2Ev(ptr noundef nonnull align 8 dereferenceable(80) %0) unnamed_addr #0 comdat align 2 {
  %2 = alloca ptr, align 8
  store ptr %0, ptr %2, align 8, !tbaa !8
  %3 = load ptr, ptr %2, align 8
  call void @_ZNSt11_Deque_baseIN3net10HpackEntryESaIS1_EEC2Ev(ptr noundef nonnull align 8 dereferenceable(80) %3)
  ret void
}

; Function Attrs: mustprogress uwtable
define void @_ZN3net16HpackStaticTableC2Ev(ptr noundef nonnull align 8 dereferenceable(192) %0) unnamed_addr #0 align 2 {
  %2 = alloca ptr, align 8
  store ptr %0, ptr %2, align 8, !tbaa !3
  %3 = load ptr, ptr %2, align 8
  %4 = getelementptr inbounds nuw %"class.net::HpackStaticTable", ptr %3, i32 0, i32 0
  call void @_ZNSt5dequeIN3net10HpackEntryESaIS1_EEC2Ev(ptr noundef nonnull align 8 dereferenceable(80) %4)
  %5 = getelementptr inbounds nuw %"class.net::HpackStaticTable", ptr %3, i32 0, i32 1
  call void @_ZNSt13unordered_setIPN3net10HpackEntryENS0_16HpackHeaderTable11EntryHasherENS3_9EntriesEqESaIS2_EEC2Ev(ptr noundef nonnull align 8 dereferenceable(56) %5) #14
  %6 = getelementptr inbounds nuw %"class.net::HpackStaticTable", ptr %3, i32 0, i32 2
  call void @_ZNSt13unordered_mapIN4base16BasicStringPieceINSt7__cxx1112basic_stringIcSt11char_traitsIcESaIcEEEEEPKN3net10HpackEntryENS0_15StringPieceHashESt8equal_toIS8_ESaISt4pairIKS8_SC_EEEC2Ev(ptr noundef nonnull align 8 dereferenceable(56) %6) #14
  ret void
}